; Function Attrs: mustprogress nofree norecurse nosync nounwind willreturn memory(argmem: readwrite) uwtable
define noundef i64 @_Z16fast_rv64i_srliwP11processor_t6insn_tm(ptr noundef captures(none) %0, i64 %1, i64 noundef %2) local_unnamed_addr #7 {
  %4 = lshr i64 %1, 7
  %5 = and i64 %4, 31
  %.not.i = icmp eq i64 %5, 0
  br i1 %.not.i, label %_ZN9regfile_tImLm32ELb1EE5writeEmm.exit, label %6

6:                                                ; preds = %3
  %7 = getelementptr inbounds nuw i8, ptr %0, i64 256
  %8 = lshr i64 %1, 15
  %9 = and i64 %8, 31
  %10 = getelementptr inbounds nuw [32 x i64], ptr %7, i64 0, i64 %9
  %11 = load i64, ptr %10, align 8, !tbaa !14
  %12 = trunc i64 %11 to i32
  %13 = trunc i64 %1 to i32
  %14 = lshr i32 %13, 20
  %15 = and i32 %14, 63
  %16 = lshr i32 %12, %15
  %17 = sext i32 %16 to i64
  %18 = getelementptr inbounds nuw [32 x i64], ptr %7, i64 0, i64 %5
  store i64 %17, ptr %18, align 8, !tbaa !14
  br label %_ZN9regfile_tImLm32ELb1EE5writeEmm.exit

_ZN9regfile_tImLm32ELb1EE5writeEmm.exit:          ; preds = %3, %6
  %19 = add i64 %2, 4
  ret i64 %19
}